; Function Attrs: mustprogress uwtable
define hidden void @_ZN3sls6solver8pop_coreEj(ptr noundef nonnull align 8 captures(none) dereferenceable(160) %0, i32 noundef %1) unnamed_addr #3 align 2 {
  %3 = getelementptr inbounds nuw i8, ptr %0, i64 128
  %4 = load ptr, ptr %3, align 8, !tbaa !386
  %.not = icmp eq ptr %4, null
  br i1 %.not, label %39, label %5

5:                                                ; preds = %2
  %6 = getelementptr inbounds nuw i8, ptr %0, i64 24
  %7 = load ptr, ptr %6, align 8, !tbaa !407
  %8 = getelementptr inbounds nuw i8, ptr %7, i64 3612
  %9 = load i32, ptr %8, align 4, !tbaa !430
  %10 = getelementptr inbounds nuw i8, ptr %7, i64 3616
  %11 = load i32, ptr %10, align 8, !tbaa !431
  %12 = sub i32 %9, %1
  %13 = icmp eq i32 %11, %12
  br i1 %13, label %.preheader, label %_ZNK3sat6solver15init_trail_sizeEv.exit.thread

.preheader:                                       ; preds = %5
  %14 = getelementptr inbounds nuw i8, ptr %0, i64 136
  %.pre = load i32, ptr %14, align 8, !tbaa !432
  br label %15

15:                                               ; preds = %.preheader, %31
  %16 = phi i32 [ %9, %.preheader ], [ %.pre4, %31 ]
  %17 = phi ptr [ %7, %.preheader ], [ %.pre3, %31 ]
  %18 = phi i32 [ %.pre, %.preheader ], [ %37, %31 ]
  %19 = icmp eq i32 %16, 0
  br i1 %19, label %20, label %26

20:                                               ; preds = %15
  %21 = getelementptr inbounds nuw i8, ptr %17, i64 3784
  %22 = load ptr, ptr %21, align 8, !tbaa !433
  %23 = icmp eq ptr %22, null
  br i1 %23, label %._ZNK3sat6solver15init_trail_sizeEv.exit.thread.loopexit_crit_edge, label %24

._ZNK3sat6solver15init_trail_sizeEv.exit.thread.loopexit_crit_edge: ; preds = %20
  %.pre5.pre = load ptr, ptr %3, align 8, !tbaa !386
  br label %_ZNK3sat6solver15init_trail_sizeEv.exit.thread

24:                                               ; preds = %20
  %25 = getelementptr inbounds i8, ptr %22, i64 -4
  br label %_ZNK3sat6solver15init_trail_sizeEv.exit

26:                                               ; preds = %15
  %27 = getelementptr inbounds nuw i8, ptr %17, i64 3856
  %28 = load ptr, ptr %27, align 8, !tbaa !434
  br label %_ZNK3sat6solver15init_trail_sizeEv.exit

_ZNK3sat6solver15init_trail_sizeEv.exit:          ; preds = %24, %26
  %.in = phi ptr [ %28, %26 ], [ %25, %24 ]
  %29 = load i32, ptr %.in, align 4, !tbaa !413
  %30 = icmp ult i32 %18, %29
  %.pre5.pre6 = load ptr, ptr %3, align 8, !tbaa !386
  br i1 %30, label %31, label %_ZNK3sat6solver15init_trail_sizeEv.exit.thread

31:                                               ; preds = %_ZNK3sat6solver15init_trail_sizeEv.exit
  %32 = getelementptr inbounds nuw i8, ptr %17, i64 3784
  %33 = load ptr, ptr %32, align 8, !tbaa !433
  %34 = zext i32 %18 to i64
  %35 = getelementptr inbounds nuw %"class.sat::literal", ptr %33, i64 %34
  %.sroa.0.0.copyload.i = load i32, ptr %35, align 4, !tbaa !413
  tail call void @_ZN3sls10smt_plugin8add_unitEN3sat7literalE(ptr noundef nonnull align 8 dereferenceable(3024) %.pre5.pre6, i32 %.sroa.0.0.copyload.i)
  %36 = load i32, ptr %14, align 8, !tbaa !432
  %37 = add i32 %36, 1
  store i32 %37, ptr %14, align 8, !tbaa !432
  %.pre3 = load ptr, ptr %6, align 8, !tbaa !407
  %.phi.trans.insert = getelementptr inbounds nuw i8, ptr %.pre3, i64 3612
  %.pre4 = load i32, ptr %.phi.trans.insert, align 4, !tbaa !430
  br label %15, !llvm.loop !435

_ZNK3sat6solver15init_trail_sizeEv.exit.thread:   ; preds = %_ZNK3sat6solver15init_trail_sizeEv.exit, %._ZNK3sat6solver15init_trail_sizeEv.exit.thread.loopexit_crit_edge, %5
  %38 = phi ptr [ %4, %5 ], [ %.pre5.pre, %._ZNK3sat6solver15init_trail_sizeEv.exit.thread.loopexit_crit_edge ], [ %.pre5.pre6, %_ZNK3sat6solver15init_trail_sizeEv.exit ]
  tail call void @_ZN3sls10smt_plugin15import_from_slsEv(ptr noundef nonnull align 8 dereferenceable(3024) %38)
  br label %39

39:                                               ; preds = %2, %_ZNK3sat6solver15init_trail_sizeEv.exit.thread
  ret void
}